; Function Attrs: nounwind uwtable
define dso_local void @create_partial_bitmap_paths(ptr noundef %0, ptr noundef %1, ptr noundef %2) local_unnamed_addr #0 {
  %4 = tail call double @compute_bitmap_pages(ptr noundef %0, ptr noundef %1, ptr noundef %2, double noundef 1.000000e+00, ptr noundef null, ptr noundef null) #9
  %5 = load i32, ptr @max_parallel_workers_per_gather, align 4
  %6 = getelementptr inbounds nuw i8, ptr %1, i64 240
  %7 = load i32, ptr %6, align 8
  %.not.i = icmp eq i32 %7, -1
  br i1 %.not.i, label %8, label %compute_parallel_worker.exit

8:                                                ; preds = %3
  %9 = getelementptr inbounds nuw i8, ptr %1, i64 4
  %10 = load i32, ptr %9, align 4
  %11 = icmp ne i32 %10, 0
  %12 = fcmp ult double %4, 0.000000e+00
  %or.cond = select i1 %11, i1 true, i1 %12
  br i1 %or.cond, label %17, label %13

13:                                               ; preds = %8
  %14 = load i32, ptr @min_parallel_table_scan_size, align 4
  %15 = sitofp i32 %14 to double
  %16 = fcmp olt double %4, %15
  br i1 %16, label %compute_parallel_worker.exit.thread, label %17

17:                                               ; preds = %13, %8
  br i1 %12, label %compute_parallel_worker.exit, label %18

18:                                               ; preds = %17
  %19 = load i32, ptr @min_parallel_table_scan_size, align 4
  %20 = tail call i32 @llvm.smax.i32(i32 %19, i32 1)
  br label %21

21:                                               ; preds = %25, %18
  %.034.i = phi i32 [ %20, %18 ], [ %22, %25 ]
  %.032.i = phi i32 [ 1, %18 ], [ %26, %25 ]
  %22 = mul i32 %.034.i, 3
  %23 = uitofp i32 %22 to double
  %24 = fcmp ult double %4, %23
  br i1 %24, label %compute_parallel_worker.exit, label %25

25:                                               ; preds = %21
  %26 = add i32 %.032.i, 1
  %27 = icmp sgt i32 %22, 715827882
  br i1 %27, label %compute_parallel_worker.exit, label %21, !llvm.loop !16

compute_parallel_worker.exit:                     ; preds = %25, %21, %3, %17
  %.035.i = phi i32 [ %7, %3 ], [ 0, %17 ], [ %26, %25 ], [ %.032.i, %21 ]
  %28 = tail call i32 @llvm.smin.i32(i32 %.035.i, i32 %5)
  %29 = icmp slt i32 %28, 1
  br i1 %29, label %compute_parallel_worker.exit.thread, label %30

30:                                               ; preds = %compute_parallel_worker.exit
  %31 = getelementptr inbounds nuw i8, ptr %1, i64 104
  %32 = load ptr, ptr %31, align 8
  %33 = tail call ptr @create_bitmap_heap_path(ptr noundef %0, ptr noundef %1, ptr noundef %2, ptr noundef %32, double noundef 1.000000e+00, i32 noundef %28) #9
  tail call void @add_partial_path(ptr noundef %1, ptr noundef %33) #9
  br label %compute_parallel_worker.exit.thread

compute_parallel_worker.exit.thread:              ; preds = %13, %compute_parallel_worker.exit, %30
  ret void
}